; Function Attrs: mustprogress uwtable
define hidden noundef zeroext i1 @_ZN4cvc58internal6theory2bv5utils6isOnesENS0_12NodeTemplateILb0EEE(ptr noundef nonnull %0) local_unnamed_addr #3 personality ptr @__gxx_personality_v0 {
  %2 = alloca %"class.cvc5::internal::BitVector", align 8
  %3 = alloca %"class.cvc5::internal::TypeNode", align 8
  %4 = alloca %"class.cvc5::internal::NodeTemplate.0", align 8
  %5 = alloca %"class.cvc5::internal::NodeTemplate", align 8
  %6 = tail call noundef zeroext i1 @_ZNK4cvc58internal12NodeTemplateILb0EE7isConstEv(ptr noundef nonnull align 8 dereferenceable(8) %0)
  br i1 %6, label %.noexc, label %52

.noexc:                                           ; preds = %1
  call void @llvm.lifetime.start.p0(i64 8, ptr nonnull %4) #22
  %7 = load ptr, ptr %0, align 8, !tbaa !10
  store ptr %7, ptr %5, align 8, !tbaa !10
  call void @llvm.lifetime.start.p0(i64 8, ptr nonnull %3) #22
  call void @_ZNK4cvc58internal12NodeTemplateILb0EE7getTypeEb(ptr dead_on_unwind nonnull writable sret(%"class.cvc5::internal::TypeNode") align 8 %3, ptr noundef nonnull align 8 dereferenceable(8) %5, i1 noundef zeroext false)
  %8 = invoke noundef i32 @_ZNK4cvc58internal8TypeNode16getBitVectorSizeEv(ptr noundef nonnull align 8 dereferenceable(8) %3)
          to label %9 unwind label %23

9:                                                ; preds = %.noexc
  %10 = load ptr, ptr %3, align 8, !tbaa !3
  %11 = load i64, ptr %10, align 8
  %12 = and i64 %11, 1152920405095219200
  %.not.i.i.i = icmp eq i64 %12, 1152920405095219200
  br i1 %.not.i.i.i, label %.noexc2, label %13, !prof !9

13:                                               ; preds = %9
  %14 = add i64 %11, 1152920405095219200
  %15 = and i64 %14, 1152920405095219200
  %16 = and i64 %11, -1152920405095219201
  %17 = or disjoint i64 %15, %16
  store i64 %17, ptr %10, align 8
  %18 = icmp eq i64 %15, 0
  br i1 %18, label %19, label %.noexc2, !prof !9

19:                                               ; preds = %13
  invoke void @_ZN4cvc58internal4expr9NodeValue15markForDeletionEv(ptr noundef nonnull align 8 dereferenceable(24) %10)
          to label %.noexc2 unwind label %20

20:                                               ; preds = %19
  %21 = landingpad { ptr, i32 }
          catch ptr null
  %22 = extractvalue { ptr, i32 } %21, 0
  call void @__clang_call_terminate(ptr %22) #23
  unreachable

23:                                               ; preds = %.noexc
  %24 = landingpad { ptr, i32 }
          cleanup
  call void @_ZN4cvc58internal8TypeNodeD2Ev(ptr noundef nonnull align 8 dereferenceable(8) %3) #22
  call void @llvm.lifetime.end.p0(i64 8, ptr nonnull %3) #22
  br label %.body

.noexc2:                                          ; preds = %19, %13, %9
  call void @llvm.lifetime.end.p0(i64 8, ptr nonnull %3) #22
  call void @llvm.lifetime.start.p0(i64 24, ptr nonnull %2) #22, !noalias !33
  call void @_ZN4cvc58internal9BitVector6mkOnesEj(ptr dead_on_unwind nonnull writable sret(%"class.cvc5::internal::BitVector") align 8 %2, i32 noundef %8)
  %25 = invoke noundef ptr @_ZN4cvc58internal11NodeManager9currentNMEv()
          to label %.noexc.i unwind label %30, !noalias !33

.noexc.i:                                         ; preds = %.noexc2
  invoke void @_ZN4cvc58internal11NodeManager7mkConstINS0_9BitVectorEEENS0_12NodeTemplateILb1EEERKT_(ptr dead_on_unwind nonnull writable sret(%"class.cvc5::internal::NodeTemplate.0") align 8 %4, ptr noundef nonnull align 8 dereferenceable(3560) %25, ptr noundef nonnull align 8 dereferenceable(24) %2)
          to label %_ZN4cvc58internal6theory2bv5utils7mkConstERKNS0_9BitVectorE.exit.i unwind label %30

_ZN4cvc58internal6theory2bv5utils7mkConstERKNS0_9BitVectorE.exit.i: ; preds = %.noexc.i
  %26 = getelementptr inbounds nuw i8, ptr %2, i64 8
  invoke void @__gmpz_clear(ptr noundef nonnull align 8 dereferenceable(16) %26)
          to label %36 unwind label %27

27:                                               ; preds = %_ZN4cvc58internal6theory2bv5utils7mkConstERKNS0_9BitVectorE.exit.i
  %28 = landingpad { ptr, i32 }
          catch ptr null
  %29 = extractvalue { ptr, i32 } %28, 0
  call void @__clang_call_terminate(ptr %29) #23
  unreachable

30:                                               ; preds = %.noexc.i, %.noexc2
  %31 = landingpad { ptr, i32 }
          cleanup
  %32 = getelementptr inbounds nuw i8, ptr %2, i64 8
  invoke void @__gmpz_clear(ptr noundef nonnull align 8 dereferenceable(16) %32)
          to label %_ZN4cvc58internal9BitVectorD2Ev.exit3.i unwind label %33

33:                                               ; preds = %30
  %34 = landingpad { ptr, i32 }
          catch ptr null
  %35 = extractvalue { ptr, i32 } %34, 0
  call void @__clang_call_terminate(ptr %35) #23
  unreachable

_ZN4cvc58internal9BitVectorD2Ev.exit3.i:          ; preds = %30
  call void @llvm.lifetime.end.p0(i64 24, ptr nonnull %2) #22, !noalias !33
  br label %.body

36:                                               ; preds = %_ZN4cvc58internal6theory2bv5utils7mkConstERKNS0_9BitVectorE.exit.i
  call void @llvm.lifetime.end.p0(i64 24, ptr nonnull %2) #22, !noalias !33
  %37 = load ptr, ptr %0, align 8, !tbaa !10
  %38 = load ptr, ptr %4, align 8, !tbaa !21
  %39 = icmp eq ptr %37, %38
  %40 = load i64, ptr %38, align 8
  %41 = and i64 %40, 1152920405095219200
  %.not.i.i = icmp eq i64 %41, 1152920405095219200
  br i1 %.not.i.i, label %_ZN4cvc58internal12NodeTemplateILb1EED2Ev.exit, label %42, !prof !9

42:                                               ; preds = %36
  %43 = add i64 %40, 1152920405095219200
  %44 = and i64 %43, 1152920405095219200
  %45 = and i64 %40, -1152920405095219201
  %46 = or disjoint i64 %44, %45
  store i64 %46, ptr %38, align 8
  %47 = icmp eq i64 %44, 0
  br i1 %47, label %48, label %_ZN4cvc58internal12NodeTemplateILb1EED2Ev.exit, !prof !9

48:                                               ; preds = %42
  invoke void @_ZN4cvc58internal4expr9NodeValue15markForDeletionEv(ptr noundef nonnull align 8 dereferenceable(24) %38)
          to label %_ZN4cvc58internal12NodeTemplateILb1EED2Ev.exit unwind label %49

49:                                               ; preds = %48
  %50 = landingpad { ptr, i32 }
          catch ptr null
  %51 = extractvalue { ptr, i32 } %50, 0
  call void @__clang_call_terminate(ptr %51) #23
  unreachable

_ZN4cvc58internal12NodeTemplateILb1EED2Ev.exit:   ; preds = %36, %42, %48
  call void @llvm.lifetime.end.p0(i64 8, ptr nonnull %4) #22
  br label %52

.body:                                            ; preds = %_ZN4cvc58internal9BitVectorD2Ev.exit3.i, %23
  %eh.lpad-body = phi { ptr, i32 } [ %24, %23 ], [ %31, %_ZN4cvc58internal9BitVectorD2Ev.exit3.i ]
  call void @llvm.lifetime.end.p0(i64 8, ptr nonnull %4) #22
  resume { ptr, i32 } %eh.lpad-body

52:                                               ; preds = %1, %_ZN4cvc58internal12NodeTemplateILb1EED2Ev.exit
  %.0 = phi i1 [ %39, %_ZN4cvc58internal12NodeTemplateILb1EED2Ev.exit ], [ false, %1 ]
  ret i1 %.0
}